target datalayout = "e-m:e-p270:32:32-p271:32:32-p272:64:64-i64:64-i128:128-f80:128-n8:16:32:64-S128"
target triple = "x86_64-pc-linux-gnu"

%struct.encryption_states_handler_s = type { i16, [4096 x i32] }
%struct._packet_info = type { ptr, ptr, i32, i32, %struct.nstime_t, %struct.nstime_t, %struct.nstime_t, i8, ptr, ptr, ptr, ptr, %struct._address, %struct._address, %struct._address, %struct._address, %struct._address, %struct._address, i32, ptr, i8, [3 x i8], %struct.anon.1, i32, i32, i32, i32, ptr, i8, ptr, ptr, i16, i16, i32, i32, i16, i32, i32, ptr, ptr, ptr, i8, i8, i16, i16, i16, i32, i16, i16, ptr, ptr, ptr, ptr, ptr, i32, i32 }
%struct.nstime_t = type { i64, i32 }
%struct._address = type { i32, i32, ptr, ptr }
%struct.anon.1 = type { i8, [3 x i8] }
%struct._proto_node = type { ptr, ptr, ptr, ptr, ptr, ptr, ptr }
%struct.field_info = type { ptr, i32, i32, i32, i32, i32, i32, ptr, ptr, ptr, i32, i32 }
%struct._value_string = type { i32, ptr }

@hf_zb_direct_unrecognized_msg = internal global i32 0, align 4
@hf_zb_direct_msg_type = internal global i32 0, align 4
@hf_zb_direct_char_c25519_aesmmo = internal global i32 0, align 4
@hf_zb_direct_char_c25519_sha256 = internal global i32 0, align 4
@hf_zb_direct_char_p256 = internal global i32 0, align 4
@enc_h = internal global [2 x %struct.encryption_states_handler_s] zeroinitializer, align 16
@g_conn_id = internal global i8 0, align 1
@serv_secur_uuid = internal constant [16 x i8] c"\E3)\B4\99\02m\E9\BF\81D\00\00\F4J\14)", align 16
@char_c25519_aesmmo_uuid = internal constant [16 x i8] c"\E3)\B4\99\02m\E9\BF\81D\01\00\F4J\14)", align 16
@char_c25519_sha256_uuid = internal constant [16 x i8] c"\E3)\B4\99\02m\E9\BF\81D\02\00\F4J\14)", align 16
@char_p256_uuid = internal constant [16 x i8] c"\E3)\B4\99\02m\E9\BF\81D\03\00\F4J\14)", align 16
@.str.123 = private unnamed_addr constant [29 x i8] c"%s:%u: failed assertion \22%s\22\00", align 1
@.str.124 = private unnamed_addr constant [37 x i8] c"epan/dissectors/packet-zbee-direct.c\00", align 1
@.str.125 = private unnamed_addr constant [2 x i8] c"0\00", align 1
@.str.126 = private unnamed_addr constant [24 x i8] c"Unrecognized SE message\00", align 1

; Function Attrs: nounwind null_pointer_is_valid sspstrong uwtable
define internal void @zb_direct_encryption_enable(ptr noundef %0) #3 {
  %2 = alloca ptr, align 8
  %3 = alloca ptr, align 8
  %4 = alloca i32, align 4
  store ptr %0, ptr %2, align 8
  call void @llvm.lifetime.start.p0(i64 8, ptr %3) #13
  %5 = load i8, ptr @g_conn_id, align 1
  %6 = zext i8 %5 to i64
  %7 = getelementptr [2 x %struct.encryption_states_handler_s], ptr @enc_h, i64 0, i64 %6
  store ptr %7, ptr %3, align 8
  %8 = load ptr, ptr %3, align 8
  %9 = getelementptr inbounds nuw %struct.encryption_states_handler_s, ptr %8, i32 0, i32 0
  %10 = load i16, ptr %9, align 4
  %11 = zext i16 %10 to i32
  %12 = srem i32 %11, 2
  %13 = icmp eq i32 %12, 1
  br i1 %13, label %14, label %15

14:                                               ; preds = %1
  store i32 1, ptr %4, align 4
  br label %56

15:                                               ; preds = %1
  %16 = load ptr, ptr %3, align 8
  %17 = getelementptr inbounds nuw %struct.encryption_states_handler_s, ptr %16, i32 0, i32 0
  %18 = load i16, ptr %17, align 4
  %19 = zext i16 %18 to i32
  %20 = icmp ne i32 %19, 0
  br i1 %20, label %21, label %37

21:                                               ; preds = %15
  %22 = load ptr, ptr %2, align 8
  %23 = getelementptr inbounds nuw %struct._packet_info, ptr %22, i32 0, i32 3
  %24 = load i32, ptr %23, align 4
  %25 = load ptr, ptr %3, align 8
  %26 = getelementptr inbounds nuw %struct.encryption_states_handler_s, ptr %25, i32 0, i32 1
  %27 = load ptr, ptr %3, align 8
  %28 = getelementptr inbounds nuw %struct.encryption_states_handler_s, ptr %27, i32 0, i32 0
  %29 = load i16, ptr %28, align 4
  %30 = zext i16 %29 to i32
  %31 = sub i32 %30, 1
  %32 = sext i32 %31 to i64
  %33 = getelementptr [4096 x i32], ptr %26, i64 0, i64 %32
  %34 = load i32, ptr %33, align 4
  %35 = icmp ule i32 %24, %34
  br i1 %35, label %36, label %37

36:                                               ; preds = %21
  store i32 1, ptr %4, align 4
  br label %56

37:                                               ; preds = %21, %15
  %38 = load ptr, ptr %3, align 8
  %39 = getelementptr inbounds nuw %struct.encryption_states_handler_s, ptr %38, i32 0, i32 0
  %40 = load i16, ptr %39, align 4
  %41 = zext i16 %40 to i32
  %42 = icmp sge i32 %41, 4096
  br i1 %42, label %43, label %44

43:                                               ; preds = %37
  store i32 1, ptr %4, align 4
  br label %56

44:                                               ; preds = %37
  %45 = load ptr, ptr %2, align 8
  %46 = getelementptr inbounds nuw %struct._packet_info, ptr %45, i32 0, i32 3
  %47 = load i32, ptr %46, align 4
  %48 = load ptr, ptr %3, align 8
  %49 = getelementptr inbounds nuw %struct.encryption_states_handler_s, ptr %48, i32 0, i32 1
  %50 = load ptr, ptr %3, align 8
  %51 = getelementptr inbounds nuw %struct.encryption_states_handler_s, ptr %50, i32 0, i32 0
  %52 = load i16, ptr %51, align 4
  %53 = add i16 %52, 1
  store i16 %53, ptr %51, align 4
  %54 = zext i16 %52 to i64
  %55 = getelementptr [4096 x i32], ptr %49, i64 0, i64 %54
  store i32 %47, ptr %55, align 4
  store i32 0, ptr %4, align 4
  br label %56

56:                                               ; preds = %44, %43, %36, %14
  call void @llvm.lifetime.end.p0(i64 8, ptr %3) #13
  %57 = load i32, ptr %4, align 4
  switch i32 %57, label %59 [
    i32 0, label %58
    i32 1, label %58
  ]

58:                                               ; preds = %56, %56
  ret void

59:                                               ; preds = %56
  unreachable
}

; Function Attrs: nounwind null_pointer_is_valid sspstrong uwtable
define internal void @zb_direct_encryption_disable(ptr noundef %0) #3 {
  %2 = alloca ptr, align 8
  %3 = alloca ptr, align 8
  %4 = alloca i32, align 4
  store ptr %0, ptr %2, align 8
  call void @llvm.lifetime.start.p0(i64 8, ptr %3) #13
  %5 = load i8, ptr @g_conn_id, align 1
  %6 = zext i8 %5 to i64
  %7 = getelementptr [2 x %struct.encryption_states_handler_s], ptr @enc_h, i64 0, i64 %6
  store ptr %7, ptr %3, align 8
  %8 = load ptr, ptr %3, align 8
  %9 = getelementptr inbounds nuw %struct.encryption_states_handler_s, ptr %8, i32 0, i32 0
  %10 = load i16, ptr %9, align 4
  %11 = zext i16 %10 to i32
  %12 = srem i32 %11, 2
  %13 = icmp eq i32 %12, 0
  br i1 %13, label %14, label %15

14:                                               ; preds = %1
  store i32 1, ptr %4, align 4
  br label %43

15:                                               ; preds = %1
  %16 = load ptr, ptr %2, align 8
  %17 = getelementptr inbounds nuw %struct._packet_info, ptr %16, i32 0, i32 3
  %18 = load i32, ptr %17, align 4
  %19 = load ptr, ptr %3, align 8
  %20 = getelementptr inbounds nuw %struct.encryption_states_handler_s, ptr %19, i32 0, i32 1
  %21 = load ptr, ptr %3, align 8
  %22 = getelementptr inbounds nuw %struct.encryption_states_handler_s, ptr %21, i32 0, i32 0
  %23 = load i16, ptr %22, align 4
  %24 = zext i16 %23 to i32
  %25 = sub i32 %24, 1
  %26 = sext i32 %25 to i64
  %27 = getelementptr [4096 x i32], ptr %20, i64 0, i64 %26
  %28 = load i32, ptr %27, align 4
  %29 = icmp ule i32 %18, %28
  br i1 %29, label %30, label %31

30:                                               ; preds = %15
  store i32 1, ptr %4, align 4
  br label %43

31:                                               ; preds = %15
  %32 = load ptr, ptr %2, align 8
  %33 = getelementptr inbounds nuw %struct._packet_info, ptr %32, i32 0, i32 3
  %34 = load i32, ptr %33, align 4
  %35 = load ptr, ptr %3, align 8
  %36 = getelementptr inbounds nuw %struct.encryption_states_handler_s, ptr %35, i32 0, i32 1
  %37 = load ptr, ptr %3, align 8
  %38 = getelementptr inbounds nuw %struct.encryption_states_handler_s, ptr %37, i32 0, i32 0
  %39 = load i16, ptr %38, align 4
  %40 = add i16 %39, 1
  store i16 %40, ptr %38, align 4
  %41 = zext i16 %39 to i64
  %42 = getelementptr [4096 x i32], ptr %36, i64 0, i64 %41
  store i32 %34, ptr %42, align 4
  store i32 0, ptr %4, align 4
  br label %43

43:                                               ; preds = %31, %30, %14
  call void @llvm.lifetime.end.p0(i64 8, ptr %3) #13
  %44 = load i32, ptr %4, align 4
  switch i32 %44, label %46 [
    i32 0, label %45
    i32 1, label %45
  ]

45:                                               ; preds = %43, %43
  ret void

46:                                               ; preds = %43
  unreachable
}

; Function Attrs: inlinehint nounwind null_pointer_is_valid sspstrong uwtable
define internal void @proto_item_set_generated(ptr noundef %0) #9 {
  %2 = alloca ptr, align 8
  store ptr %0, ptr %2, align 8
  %3 = load ptr, ptr %2, align 8
  %4 = icmp ne ptr %3, null
  br i1 %4, label %5, label %24

5:                                                ; preds = %1
  br label %6

6:                                                ; preds = %5
  %7 = load ptr, ptr %2, align 8
  %8 = getelementptr inbounds nuw %struct._proto_node, ptr %7, i32 0, i32 5
  %9 = load ptr, ptr %8, align 8
  %10 = icmp ne ptr %9, null
  br i1 %10, label %11, label %22

11:                                               ; preds = %6
  %12 = load ptr, ptr %2, align 8
  %13 = getelementptr inbounds nuw %struct._proto_node, ptr %12, i32 0, i32 5
  %14 = load ptr, ptr %13, align 8
  %15 = getelementptr inbounds nuw %struct.field_info, ptr %14, i32 0, i32 6
  %16 = load i32, ptr %15, align 4
  %17 = or i32 %16, 2
  %18 = load ptr, ptr %2, align 8
  %19 = getelementptr inbounds nuw %struct._proto_node, ptr %18, i32 0, i32 5
  %20 = load ptr, ptr %19, align 8
  %21 = getelementptr inbounds nuw %struct.field_info, ptr %20, i32 0, i32 6
  store i32 %17, ptr %21, align 4
  br label %22

22:                                               ; preds = %11, %6
  br label %23

23:                                               ; preds = %22
  br label %24

24:                                               ; preds = %23, %1
  ret void
}

; Function Attrs: null_pointer_is_valid sspstrong uwtable
define internal i32 @dissect_zb_direct_secur_common(ptr noundef %0, ptr noundef %1, ptr noundef %2, ptr noundef %3, i32 noundef %4, i32 noundef %5) #0 {
  %7 = alloca ptr, align 8
  %8 = alloca ptr, align 8
  %9 = alloca ptr, align 8
  %10 = alloca ptr, align 8
  %11 = alloca i32, align 4
  %12 = alloca i32, align 4
  %13 = alloca i32, align 4
  %14 = alloca ptr, align 8
  %15 = alloca ptr, align 8
  %16 = alloca i8, align 1
  %17 = alloca i64, align 8
  store ptr %0, ptr %7, align 8
  store ptr %1, ptr %8, align 8
  store ptr %2, ptr %9, align 8
  store ptr %3, ptr %10, align 8
  store i32 %4, ptr %11, align 4
  store i32 %5, ptr %12, align 4
  call void @llvm.lifetime.start.p0(i64 4, ptr %13) #13
  %18 = load ptr, ptr %7, align 8
  %19 = call i32 @tvb_captured_length(ptr noundef %18)
  store i32 %19, ptr %13, align 4
  call void @llvm.lifetime.start.p0(i64 8, ptr %14) #13
  call void @llvm.lifetime.start.p0(i64 8, ptr %15) #13
  %20 = load i32, ptr %12, align 4
  switch i32 %20, label %24 [
    i32 9, label %21
    i32 10, label %22
    i32 11, label %23
  ]

21:                                               ; preds = %6
  store ptr @char_c25519_aesmmo_uuid, ptr %15, align 8
  br label %25

22:                                               ; preds = %6
  store ptr @char_c25519_sha256_uuid, ptr %15, align 8
  br label %25

23:                                               ; preds = %6
  store ptr @char_p256_uuid, ptr %15, align 8
  br label %25

24:                                               ; preds = %6
  call void (ptr, ...) @proto_report_dissector_bug(ptr noundef @.str.123, ptr noundef @.str.124, i32 noundef 1132, ptr noundef @.str.125) #17
  unreachable

25:                                               ; preds = %23, %22, %21
  %26 = load ptr, ptr %8, align 8
  %27 = load ptr, ptr %10, align 8
  %28 = load i32, ptr %11, align 4
  %29 = load ptr, ptr %15, align 8
  %30 = call i32 @dissect_zb_direct_common(ptr noundef %7, ptr noundef %26, ptr noundef %9, ptr noundef %27, i32 noundef %28, ptr noundef @serv_secur_uuid, ptr noundef %29)
  store i32 %30, ptr %11, align 4
  %31 = load i32, ptr %12, align 4
  switch i32 %31, label %50 [
    i32 9, label %32
    i32 10, label %38
    i32 11, label %44
  ]

32:                                               ; preds = %25
  %33 = load ptr, ptr %9, align 8
  %34 = load i32, ptr @hf_zb_direct_char_c25519_aesmmo, align 4
  %35 = load ptr, ptr %7, align 8
  %36 = load i32, ptr %11, align 4
  %37 = call ptr @proto_tree_add_item(ptr noundef %33, i32 noundef %34, ptr noundef %35, i32 noundef %36, i32 noundef 0, i32 noundef 0)
  store ptr %37, ptr %14, align 8
  br label %51

38:                                               ; preds = %25
  %39 = load ptr, ptr %9, align 8
  %40 = load i32, ptr @hf_zb_direct_char_c25519_sha256, align 4
  %41 = load ptr, ptr %7, align 8
  %42 = load i32, ptr %11, align 4
  %43 = call ptr @proto_tree_add_item(ptr noundef %39, i32 noundef %40, ptr noundef %41, i32 noundef %42, i32 noundef 0, i32 noundef 0)
  store ptr %43, ptr %14, align 8
  br label %51

44:                                               ; preds = %25
  %45 = load ptr, ptr %9, align 8
  %46 = load i32, ptr @hf_zb_direct_char_p256, align 4
  %47 = load ptr, ptr %7, align 8
  %48 = load i32, ptr %11, align 4
  %49 = call ptr @proto_tree_add_item(ptr noundef %45, i32 noundef %46, ptr noundef %47, i32 noundef %48, i32 noundef 0, i32 noundef 0)
  store ptr %49, ptr %14, align 8
  br label %51

50:                                               ; preds = %25
  call void (ptr, ...) @proto_report_dissector_bug(ptr noundef @.str.123, ptr noundef @.str.124, i32 noundef 1154, ptr noundef @.str.125) #17
  unreachable

51:                                               ; preds = %44, %38, %32
  %52 = load ptr, ptr %14, align 8
  call void @proto_item_set_generated(ptr noundef %52)
  call void @llvm.lifetime.start.p0(i64 1, ptr %16) #13
  %53 = load ptr, ptr %7, align 8
  %54 = load i32, ptr %11, align 4
  %55 = call zeroext i8 @tvb_get_uint8(ptr noundef %53, i32 noundef %54)
  store i8 %55, ptr %16, align 1
  %56 = load ptr, ptr %9, align 8
  %57 = load i32, ptr @hf_zb_direct_msg_type, align 4
  %58 = load ptr, ptr %7, align 8
  %59 = load i32, ptr %11, align 4
  %60 = call ptr @proto_tree_add_item(ptr noundef %56, i32 noundef %57, ptr noundef %58, i32 noundef %59, i32 noundef 1, i32 noundef -2147483648)
  %61 = load i32, ptr %11, align 4
  %62 = add i32 %61, 1
  store i32 %62, ptr %11, align 4
  %63 = load i8, ptr %16, align 1
  %64 = zext i8 %63 to i32
  %65 = icmp eq i32 %64, 1
  br i1 %65, label %66, label %68

66:                                               ; preds = %51
  %67 = load ptr, ptr %8, align 8
  call void @zb_direct_encryption_disable(ptr noundef %67)
  br label %75

68:                                               ; preds = %51
  %69 = load i8, ptr %16, align 1
  %70 = zext i8 %69 to i32
  %71 = icmp eq i32 %70, 4
  br i1 %71, label %72, label %74

72:                                               ; preds = %68
  %73 = load ptr, ptr %8, align 8
  call void @zb_direct_encryption_enable(ptr noundef %73)
  br label %74

74:                                               ; preds = %72, %68
  br label %75

75:                                               ; preds = %74, %66
  %76 = load ptr, ptr %7, align 8
  %77 = load ptr, ptr %8, align 8
  %78 = load ptr, ptr %9, align 8
  %79 = load i32, ptr %11, align 4
  %80 = load ptr, ptr %10, align 8
  %81 = load i32, ptr %12, align 4
  %82 = call i32 @dissect_zbee_tlvs(ptr noundef %76, ptr noundef %77, ptr noundef %78, i32 noundef %79, ptr noundef %80, i8 noundef zeroext 4, i32 noundef %81)
  store i32 %82, ptr %11, align 4
  %83 = load i8, ptr %16, align 1
  %84 = zext i8 %83 to i32
  %85 = icmp sge i32 %84, 1
  br i1 %85, label %86, label %102

86:                                               ; preds = %75
  %87 = load i8, ptr %16, align 1
  %88 = zext i8 %87 to i32
  %89 = icmp sle i32 %88, 4
  br i1 %89, label %90, label %102

90:                                               ; preds = %86
  call void @llvm.lifetime.start.p0(i64 8, ptr %17) #13
  %91 = load i8, ptr %16, align 1
  %92 = zext i8 %91 to i32
  %93 = sub i32 %92, 1
  %94 = sext i32 %93 to i64
  store i64 %94, ptr %17, align 8
  %95 = load ptr, ptr %8, align 8
  %96 = getelementptr inbounds nuw %struct._packet_info, ptr %95, i32 0, i32 1
  %97 = load ptr, ptr %96, align 8
  %98 = load i64, ptr %17, align 8
  %99 = getelementptr [5 x %struct._value_string], ptr @msg_type_str, i64 0, i64 %98
  %100 = getelementptr inbounds nuw %struct._value_string, ptr %99, i32 0, i32 1
  %101 = load ptr, ptr %100, align 8
  call void @col_set_str(ptr noundef %97, i32 noundef 25, ptr noundef %101)
  call void @llvm.lifetime.end.p0(i64 8, ptr %17) #13
  br label %112

102:                                              ; preds = %86, %75
  %103 = load ptr, ptr %9, align 8
  %104 = load i32, ptr @hf_zb_direct_unrecognized_msg, align 4
  %105 = load ptr, ptr %7, align 8
  %106 = load i32, ptr %13, align 4
  %107 = call ptr @proto_tree_add_item(ptr noundef %103, i32 noundef %104, ptr noundef %105, i32 noundef 0, i32 noundef %106, i32 noundef 0)
  %108 = load i32, ptr %13, align 4
  store i32 %108, ptr %11, align 4
  %109 = load ptr, ptr %8, align 8
  %110 = getelementptr inbounds nuw %struct._packet_info, ptr %109, i32 0, i32 1
  %111 = load ptr, ptr %110, align 8
  call void @col_set_str(ptr noundef %111, i32 noundef 25, ptr noundef @.str.126)
  br label %112

112:                                              ; preds = %102, %90
  %113 = load i32, ptr %11, align 4
  call void @llvm.lifetime.end.p0(i64 1, ptr %16) #13
  call void @llvm.lifetime.end.p0(i64 8, ptr %15) #13
  call void @llvm.lifetime.end.p0(i64 8, ptr %14) #13
  call void @llvm.lifetime.end.p0(i64 4, ptr %13) #13
  ret i32 %113
}