; Function Attrs: null_pointer_is_valid sspstrong uwtable
define internal fastcc i32 @dissect_zb_direct_secur_common(ptr noundef %0, ptr noundef %1, ptr noundef %2, ptr noundef %3, i32 noundef range(i32 9, 12) %4) unnamed_addr #0 {
switch.lookup:
  %5 = alloca ptr, align 8
  %6 = alloca ptr, align 8
  store ptr %0, ptr %5, align 8
  store ptr %2, ptr %6, align 8
  %7 = tail call i32 @tvb_captured_length(ptr noundef %0)
  %switch.tableidx = add nsw i32 %4, -9
  %8 = sext i32 %switch.tableidx to i64
  %switch.gep = getelementptr inbounds [3 x ptr], ptr @switch.table.dissect_zb_direct_secur_common, i64 0, i64 %8
  %switch.load = load ptr, ptr %switch.gep, align 8
  %9 = sext i32 %switch.tableidx to i64
  %switch.gep1 = getelementptr inbounds [3 x ptr], ptr @switch.table.dissect_zb_direct_secur_common.4, i64 0, i64 %9
  %switch.load2 = load ptr, ptr %switch.gep1, align 8
  %10 = call fastcc i32 @dissect_zb_direct_common(ptr noundef nonnull %5, ptr noundef %1, ptr noundef nonnull %6, ptr noundef nonnull @serv_secur_uuid, ptr noundef nonnull %switch.load)
  %11 = load ptr, ptr %6, align 8
  %12 = load i32, ptr %switch.load2, align 4
  %13 = load ptr, ptr %5, align 8
  %14 = tail call ptr @proto_tree_add_item(ptr noundef %11, i32 noundef %12, ptr noundef %13, i32 noundef %10, i32 noundef 0, i32 noundef 0)
  %.not.i = icmp eq ptr %14, null
  br i1 %.not.i, label %proto_item_set_generated.exit, label %15

15:                                               ; preds = %switch.lookup
  %16 = getelementptr inbounds nuw i8, ptr %14, i64 40
  %17 = load ptr, ptr %16, align 8
  %.not5.i = icmp eq ptr %17, null
  br i1 %.not5.i, label %proto_item_set_generated.exit, label %18

18:                                               ; preds = %15
  %19 = getelementptr inbounds nuw i8, ptr %17, i64 28
  %20 = load i32, ptr %19, align 4
  %21 = or i32 %20, 2
  store i32 %21, ptr %19, align 4
  br label %proto_item_set_generated.exit

proto_item_set_generated.exit:                    ; preds = %switch.lookup, %15, %18
  %22 = tail call zeroext i8 @tvb_get_uint8(ptr noundef %13, i32 noundef %10)
  %23 = load i32, ptr @hf_zb_direct_msg_type, align 4
  %24 = tail call ptr @proto_tree_add_item(ptr noundef %11, i32 noundef %23, ptr noundef %13, i32 noundef %10, i32 noundef 1, i32 noundef -2147483648)
  %25 = add i32 %10, 1
  %26 = zext i8 %22 to i64
  switch i8 %22, label %zb_direct_encryption_disable.exit [
    i8 1, label %27
    i8 4, label %39
  ]

27:                                               ; preds = %proto_item_set_generated.exit
  %28 = load i16, ptr @enc_h, align 16
  %29 = zext i16 %28 to i32
  %30 = and i32 %29, 1
  %31 = icmp eq i32 %30, 0
  br i1 %31, label %zb_direct_encryption_disable.exit.thread, label %32

32:                                               ; preds = %27
  %33 = getelementptr inbounds nuw i8, ptr %1, i64 20
  %34 = load i32, ptr %33, align 4
  %35 = add nsw i32 %29, -1
  %36 = zext nneg i32 %35 to i64
  %37 = getelementptr [4096 x i32], ptr getelementptr inbounds nuw (i8, ptr @enc_h, i64 4), i64 0, i64 %36
  %38 = load i32, ptr %37, align 4
  %.not.i34 = icmp ugt i32 %34, %38
  br i1 %.not.i34, label %zb_direct_encryption_disable.exit.thread.sink.split, label %zb_direct_encryption_disable.exit.thread

39:                                               ; preds = %proto_item_set_generated.exit
  %40 = load i16, ptr @enc_h, align 16
  %41 = zext i16 %40 to i32
  %42 = and i32 %41, 1
  %.not.i35 = icmp eq i32 %42, 0
  br i1 %.not.i35, label %43, label %zb_direct_encryption_disable.exit.thread

43:                                               ; preds = %39
  %.not9.i = icmp eq i16 %40, 0
  %.phi.trans.insert.i = getelementptr inbounds nuw i8, ptr %1, i64 20
  %.pre.i = load i32, ptr %.phi.trans.insert.i, align 4
  br i1 %.not9.i, label %zb_direct_encryption_disable.exit.thread.sink.split, label %44

44:                                               ; preds = %43
  %45 = add nsw i32 %41, -1
  %46 = zext nneg i32 %45 to i64
  %47 = getelementptr [4096 x i32], ptr getelementptr inbounds nuw (i8, ptr @enc_h, i64 4), i64 0, i64 %46
  %48 = load i32, ptr %47, align 4
  %.not10.i = icmp ule i32 %.pre.i, %48
  %49 = icmp ugt i16 %40, 4095
  %or.cond.i = or i1 %49, %.not10.i
  br i1 %or.cond.i, label %zb_direct_encryption_disable.exit.thread, label %zb_direct_encryption_disable.exit.thread.sink.split

zb_direct_encryption_disable.exit.thread.sink.split: ; preds = %43, %44, %32
  %.sink46 = phi i16 [ %28, %32 ], [ %40, %44 ], [ %40, %43 ]
  %.pre.i.sink = phi i32 [ %34, %32 ], [ %.pre.i, %44 ], [ %.pre.i, %43 ]
  %50 = add i16 %.sink46, 1
  store i16 %50, ptr @enc_h, align 16
  %51 = zext i16 %.sink46 to i64
  %52 = getelementptr [4096 x i32], ptr getelementptr inbounds nuw (i8, ptr @enc_h, i64 4), i64 0, i64 %51
  store i32 %.pre.i.sink, ptr %52, align 4
  br label %zb_direct_encryption_disable.exit.thread

zb_direct_encryption_disable.exit.thread:         ; preds = %zb_direct_encryption_disable.exit.thread.sink.split, %44, %39, %32, %27
  %53 = tail call i32 @dissect_zbee_tlvs(ptr noundef %13, ptr noundef %1, ptr noundef %11, i32 noundef %25, ptr noundef %3, i8 noundef zeroext 4, i32 noundef %4)
  br label %56

zb_direct_encryption_disable.exit:                ; preds = %proto_item_set_generated.exit
  %54 = tail call i32 @dissect_zbee_tlvs(ptr noundef %13, ptr noundef %1, ptr noundef %11, i32 noundef %25, ptr noundef %3, i8 noundef zeroext 4, i32 noundef %4)
  %55 = add i8 %22, -1
  %or.cond = icmp ult i8 %55, 4
  br i1 %or.cond, label %56, label %64

56:                                               ; preds = %zb_direct_encryption_disable.exit.thread, %zb_direct_encryption_disable.exit
  %57 = phi i32 [ %53, %zb_direct_encryption_disable.exit.thread ], [ %54, %zb_direct_encryption_disable.exit ]
  %58 = add nuw nsw i64 %26, 4294967295
  %59 = and i64 %58, 4294967295
  %60 = getelementptr inbounds nuw i8, ptr %1, i64 8
  %61 = load ptr, ptr %60, align 8
  %62 = getelementptr [5 x %struct._value_string], ptr @msg_type_str, i64 0, i64 %59, i32 1
  %63 = load ptr, ptr %62, align 8
  tail call void @col_set_str(ptr noundef %61, i32 noundef 25, ptr noundef %63)
  br label %69

64:                                               ; preds = %zb_direct_encryption_disable.exit
  %65 = load i32, ptr @hf_zb_direct_unrecognized_msg, align 4
  %66 = tail call ptr @proto_tree_add_item(ptr noundef %11, i32 noundef %65, ptr noundef %13, i32 noundef 0, i32 noundef %7, i32 noundef 0)
  %67 = getelementptr inbounds nuw i8, ptr %1, i64 8
  %68 = load ptr, ptr %67, align 8
  tail call void @col_set_str(ptr noundef %68, i32 noundef 25, ptr noundef nonnull @.str.126)
  br label %69

69:                                               ; preds = %64, %56
  %.0 = phi i32 [ %57, %56 ], [ %7, %64 ]
  ret i32 %.0
}